target datalayout = "e-m:e-p270:32:32-p271:32:32-p272:64:64-i64:64-i128:128-f80:128-n8:16:32:64-S128"
target triple = "x86_64-unknown-linux-gnu"

%"class.std::set.0" = type { %"class.std::_Rb_tree.1" }
%"class.std::_Rb_tree.1" = type { %"struct.std::_Rb_tree<QuantLib::Observer *, QuantLib::Observer *, std::_Identity<QuantLib::Observer *>, std::less<QuantLib::Observer *>>::_Rb_tree_impl" }
%"struct.std::_Rb_tree<QuantLib::Observer *, QuantLib::Observer *, std::_Identity<QuantLib::Observer *>, std::less<QuantLib::Observer *>>::_Rb_tree_impl" = type { [8 x i8], %"struct.std::_Rb_tree_header" }
%"struct.std::_Rb_tree_header" = type { %"struct.std::_Rb_tree_node_base", i64 }
%"struct.std::_Rb_tree_node_base" = type { i32, ptr, ptr, ptr }
%"class.std::set" = type { %"class.std::_Rb_tree" }
%"class.std::_Rb_tree" = type { %"struct.std::_Rb_tree<boost::shared_ptr<QuantLib::Observable>, boost::shared_ptr<QuantLib::Observable>, std::_Identity<boost::shared_ptr<QuantLib::Observable>>, std::less<boost::shared_ptr<QuantLib::Observable>>>::_Rb_tree_impl" }
%"struct.std::_Rb_tree<boost::shared_ptr<QuantLib::Observable>, boost::shared_ptr<QuantLib::Observable>, std::_Identity<boost::shared_ptr<QuantLib::Observable>>, std::less<boost::shared_ptr<QuantLib::Observable>>>::_Rb_tree_impl" = type { [8 x i8], %"struct.std::_Rb_tree_header" }
%"class.boost::detail::shared_count" = type { ptr }
%"class.QuantLib::Observable" = type { ptr, %"class.std::set.0" }
%"class.QuantLib::CoxIngersollRossProcess" = type { %"class.QuantLib::StochasticProcess1D", double, double, double, double }
%"class.QuantLib::StochasticProcess1D" = type { %"class.QuantLib::StochasticProcess", %"class.boost::shared_ptr.7" }
%"class.QuantLib::StochasticProcess" = type { %"class.QuantLib::Observer", %"class.QuantLib::Observable", %"class.boost::shared_ptr.6" }
%"class.QuantLib::Observer" = type { ptr, %"class.std::set" }
%"class.boost::shared_ptr.6" = type { ptr, %"class.boost::detail::shared_count" }
%"class.boost::shared_ptr.7" = type { ptr, %"class.boost::detail::shared_count" }

; Function Attrs: mustprogress nounwind uwtable
define noundef double @_ZNK8QuantLib23CoxIngersollRossProcess8varianceEddd(ptr noundef nonnull align 8 dereferenceable(176) %this, double noundef %0, double noundef %1, double noundef %dt) unnamed_addr #1 align 2 {
entry:
  %this.addr = alloca ptr, align 8
  %.addr = alloca double, align 8
  %.addr1 = alloca double, align 8
  %dt.addr = alloca double, align 8
  %exponent1 = alloca double, align 8
  %exponent2 = alloca double, align 8
  %fraction = alloca double, align 8
  store ptr %this, ptr %this.addr, align 8, !tbaa !3
  store double %0, ptr %.addr, align 8, !tbaa !12
  store double %1, ptr %.addr1, align 8, !tbaa !12
  store double %dt, ptr %dt.addr, align 8, !tbaa !12
  %this2 = load ptr, ptr %this.addr, align 8
  call void @llvm.lifetime.start.p0(i64 8, ptr %exponent1) #11
  %speed_ = getelementptr inbounds nuw %"class.QuantLib::CoxIngersollRossProcess", ptr %this2, i32 0, i32 2
  %2 = load double, ptr %speed_, align 8, !tbaa !14
  %fneg = fneg double %2
  %3 = load double, ptr %dt.addr, align 8, !tbaa !12
  %mul = fmul double %fneg, %3
  %call = call double @exp(double noundef %mul) #11, !tbaa !41
  store double %call, ptr %exponent1, align 8, !tbaa !12
  call void @llvm.lifetime.start.p0(i64 8, ptr %exponent2) #11
  %speed_3 = getelementptr inbounds nuw %"class.QuantLib::CoxIngersollRossProcess", ptr %this2, i32 0, i32 2
  %4 = load double, ptr %speed_3, align 8, !tbaa !14
  %mul4 = fmul double -2.000000e+00, %4
  %5 = load double, ptr %dt.addr, align 8, !tbaa !12
  %mul5 = fmul double %mul4, %5
  %call6 = call double @exp(double noundef %mul5) #11, !tbaa !41
  store double %call6, ptr %exponent2, align 8, !tbaa !12
  call void @llvm.lifetime.start.p0(i64 8, ptr %fraction) #11
  %volatility_ = getelementptr inbounds nuw %"class.QuantLib::CoxIngersollRossProcess", ptr %this2, i32 0, i32 4
  %6 = load double, ptr %volatility_, align 8, !tbaa !40
  %volatility_7 = getelementptr inbounds nuw %"class.QuantLib::CoxIngersollRossProcess", ptr %this2, i32 0, i32 4
  %7 = load double, ptr %volatility_7, align 8, !tbaa !40
  %mul8 = fmul double %6, %7
  %speed_9 = getelementptr inbounds nuw %"class.QuantLib::CoxIngersollRossProcess", ptr %this2, i32 0, i32 2
  %8 = load double, ptr %speed_9, align 8, !tbaa !14
  %div = fdiv double %mul8, %8
  store double %div, ptr %fraction, align 8, !tbaa !12
  %x0_ = getelementptr inbounds nuw %"class.QuantLib::CoxIngersollRossProcess", ptr %this2, i32 0, i32 1
  %9 = load double, ptr %x0_, align 8, !tbaa !39
  %10 = load double, ptr %fraction, align 8, !tbaa !12
  %mul10 = fmul double %9, %10
  %11 = load double, ptr %exponent1, align 8, !tbaa !12
  %12 = load double, ptr %exponent2, align 8, !tbaa !12
  %sub = fsub double %11, %12
  %level_ = getelementptr inbounds nuw %"class.QuantLib::CoxIngersollRossProcess", ptr %this2, i32 0, i32 3
  %13 = load double, ptr %level_, align 8, !tbaa !36
  %14 = load double, ptr %fraction, align 8, !tbaa !12
  %mul12 = fmul double %13, %14
  %15 = load double, ptr %exponent1, align 8, !tbaa !12
  %sub13 = fsub double 1.000000e+00, %15
  %mul14 = fmul double %mul12, %sub13
  %16 = load double, ptr %exponent1, align 8, !tbaa !12
  %sub15 = fsub double 1.000000e+00, %16
  %mul16 = fmul double %mul14, %sub15
  %17 = call double @llvm.fmuladd.f64(double %mul10, double %sub, double %mul16)
  call void @llvm.lifetime.end.p0(i64 8, ptr %fraction) #11
  call void @llvm.lifetime.end.p0(i64 8, ptr %exponent2) #11
  call void @llvm.lifetime.end.p0(i64 8, ptr %exponent1) #11
  ret double %17
}