; Function Attrs: mustprogress nofree nounwind willreturn memory(write, argmem: readwrite) uwtable
define noundef double @_ZNK8QuantLib23CoxIngersollRossProcess8varianceEddd(ptr nocapture noundef nonnull readonly align 8 dereferenceable(176) %this, double %0, double %1, double noundef %dt) unnamed_addr #10 align 2 {
entry:
  %speed_ = getelementptr inbounds nuw i8, ptr %this, i64 152
  %2 = load double, ptr %speed_, align 8, !tbaa !28
  %fneg = fneg double %2
  %mul = fmul double %dt, %fneg
  %call = tail call double @exp(double noundef %mul) #24, !tbaa !56
  %mul4 = fmul double %2, -2.000000e+00
  %mul5 = fmul double %dt, %mul4
  %call6 = tail call double @exp(double noundef %mul5) #24, !tbaa !56
  %volatility_ = getelementptr inbounds nuw i8, ptr %this, i64 168
  %3 = load double, ptr %volatility_, align 8, !tbaa !47
  %mul8 = fmul double %3, %3
  %div = fdiv double %mul8, %2
  %x0_ = getelementptr inbounds nuw i8, ptr %this, i64 144
  %4 = load double, ptr %x0_, align 8, !tbaa !46
  %mul10 = fmul double %4, %div
  %sub = fsub double %call, %call6
  %level_ = getelementptr inbounds nuw i8, ptr %this, i64 160
  %5 = load double, ptr %level_, align 8, !tbaa !43
  %mul12 = fmul double %5, %div
  %sub13 = fsub double 1.000000e+00, %call
  %mul14 = fmul double %sub13, %mul12
  %mul16 = fmul double %sub13, %mul14
  %6 = tail call double @llvm.fmuladd.f64(double %mul10, double %sub, double %mul16)
  ret double %6
}